; ModuleID = '22/136.c'
source_filename = "22/136.c"
target datalayout = "e-m:e-p270:32:32-p271:32:32-p272:64:64-i64:64-f80:128-n8:16:32:64-S128"
target triple = "x86_64-pc-linux-gnu"

@.str = private unnamed_addr constant [4 x i8] c"No\0A\00", align 1
@.str.1 = private unnamed_addr constant [3 x i8] c"%d\00", align 1
@.str.2 = private unnamed_addr constant [4 x i8] c"%d\0A\00", align 1

; Function Attrs: noinline nounwind uwtable
define dso_local void @main() #0 {
  %1 = alloca [300 x i32], align 16
  %2 = alloca i32, align 4
  %3 = alloca i32, align 4
  %4 = alloca i32, align 4
  %5 = alloca i32, align 4
  %6 = alloca i32, align 4
  %7 = alloca i32, align 4
  %8 = alloca [1202 x i8], align 16
  %9 = alloca [300 x [5 x i8]], align 16
  store i32 0, i32* %5, align 4
  %10 = getelementptr inbounds [1202 x i8], [1202 x i8]* %8, i64 0, i64 0
  %11 = call i32 (i8*, ...) bitcast (i32 (...)* @gets to i32 (i8*, ...)*)(i8* %10)
  store i32 0, i32* %3, align 4
  store i32 0, i32* %4, align 4
  store i32 0, i32* %2, align 4
  br label %12

12:                                               ; preds = %115, %0
  %13 = load i32, i32* %2, align 4
  %14 = sext i32 %13 to i64
  %15 = getelementptr inbounds [1202 x i8], [1202 x i8]* %8, i64 0, i64 %14
  %16 = load i8, i8* %15, align 1
  %17 = sext i8 %16 to i32
  %18 = icmp ne i32 %17, 0
  br i1 %18, label %19, label %118

19:                                               ; preds = %12
  %20 = load i32, i32* %2, align 4
  %21 = sext i32 %20 to i64
  %22 = getelementptr inbounds [1202 x i8], [1202 x i8]* %8, i64 0, i64 %21
  %23 = load i8, i8* %22, align 1
  %24 = sext i8 %23 to i32
  %25 = icmp sle i32 %24, 57
  br i1 %25, label %26, label %62

26:                                               ; preds = %19
  %27 = load i32, i32* %2, align 4
  %28 = sext i32 %27 to i64
  %29 = getelementptr inbounds [1202 x i8], [1202 x i8]* %8, i64 0, i64 %28
  %30 = load i8, i8* %29, align 1
  %31 = sext i8 %30 to i32
  %32 = icmp sge i32 %31, 48
  br i1 %32, label %33, label %62

33:                                               ; preds = %26
  %34 = load i32, i32* %2, align 4
  %35 = add nsw i32 %34, 1
  %36 = sext i32 %35 to i64
  %37 = getelementptr inbounds [1202 x i8], [1202 x i8]* %8, i64 0, i64 %36
  %38 = load i8, i8* %37, align 1
  %39 = sext i8 %38 to i32
  %40 = icmp sle i32 %39, 57
  br i1 %40, label %41, label %62

41:                                               ; preds = %33
  %42 = load i32, i32* %2, align 4
  %43 = add nsw i32 %42, 1
  %44 = sext i32 %43 to i64
  %45 = getelementptr inbounds [1202 x i8], [1202 x i8]* %8, i64 0, i64 %44
  %46 = load i8, i8* %45, align 1
  %47 = sext i8 %46 to i32
  %48 = icmp sge i32 %47, 48
  br i1 %48, label %49, label %62

49:                                               ; preds = %41
  %50 = load i32, i32* %2, align 4
  %51 = sext i32 %50 to i64
  %52 = getelementptr inbounds [1202 x i8], [1202 x i8]* %8, i64 0, i64 %51
  %53 = load i8, i8* %52, align 1
  %54 = load i32, i32* %3, align 4
  %55 = sext i32 %54 to i64
  %56 = getelementptr inbounds [300 x [5 x i8]], [300 x [5 x i8]]* %9, i64 0, i64 %55
  %57 = load i32, i32* %4, align 4
  %58 = sext i32 %57 to i64
  %59 = getelementptr inbounds [5 x i8], [5 x i8]* %56, i64 0, i64 %58
  store i8 %53, i8* %59, align 1
  %60 = load i32, i32* %4, align 4
  %61 = add nsw i32 %60, 1
  store i32 %61, i32* %4, align 4
  br label %62

62:                                               ; preds = %49, %41, %33, %26, %19
  %63 = load i32, i32* %2, align 4
  %64 = sext i32 %63 to i64
  %65 = getelementptr inbounds [1202 x i8], [1202 x i8]* %8, i64 0, i64 %64
  %66 = load i8, i8* %65, align 1
  %67 = sext i8 %66 to i32
  %68 = icmp sle i32 %67, 57
  br i1 %68, label %69, label %114

69:                                               ; preds = %62
  %70 = load i32, i32* %2, align 4
  %71 = sext i32 %70 to i64
  %72 = getelementptr inbounds [1202 x i8], [1202 x i8]* %8, i64 0, i64 %71
  %73 = load i8, i8* %72, align 1
  %74 = sext i8 %73 to i32
  %75 = icmp sge i32 %74, 48
  br i1 %75, label %76, label %114

76:                                               ; preds = %69
  %77 = load i32, i32* %2, align 4
  %78 = add nsw i32 %77, 1
  %79 = sext i32 %78 to i64
  %80 = getelementptr inbounds [1202 x i8], [1202 x i8]* %8, i64 0, i64 %79
  %81 = load i8, i8* %80, align 1
  %82 = sext i8 %81 to i32
  %83 = icmp sgt i32 %82, 57
  br i1 %83, label %92, label %84

84:                                               ; preds = %76
  %85 = load i32, i32* %2, align 4
  %86 = add nsw i32 %85, 1
  %87 = sext i32 %86 to i64
  %88 = getelementptr inbounds [1202 x i8], [1202 x i8]* %8, i64 0, i64 %87
  %89 = load i8, i8* %88, align 1
  %90 = sext i8 %89 to i32
  %91 = icmp slt i32 %90, 48
  br i1 %91, label %92, label %114

92:                                               ; preds = %84, %76
  %93 = load i32, i32* %2, align 4
  %94 = sext i32 %93 to i64
  %95 = getelementptr inbounds [1202 x i8], [1202 x i8]* %8, i64 0, i64 %94
  %96 = load i8, i8* %95, align 1
  %97 = load i32, i32* %3, align 4
  %98 = sext i32 %97 to i64
  %99 = getelementptr inbounds [300 x [5 x i8]], [300 x [5 x i8]]* %9, i64 0, i64 %98
  %100 = load i32, i32* %4, align 4
  %101 = sext i32 %100 to i64
  %102 = getelementptr inbounds [5 x i8], [5 x i8]* %99, i64 0, i64 %101
  store i8 %96, i8* %102, align 1
  store i32 0, i32* %4, align 4
  %103 = load i32, i32* %3, align 4
  %104 = add nsw i32 %103, 1
  store i32 %104, i32* %3, align 4
  %105 = load i32, i32* %5, align 4
  %106 = add nsw i32 %105, 1
  store i32 %106, i32* %5, align 4
  %107 = load i32, i32* %3, align 4
  %108 = sext i32 %107 to i64
  %109 = getelementptr inbounds [300 x [5 x i8]], [300 x [5 x i8]]* %9, i64 0, i64 %108
  %110 = load i32, i32* %4, align 4
  %111 = add nsw i32 %110, 1
  %112 = sext i32 %111 to i64
  %113 = getelementptr inbounds [5 x i8], [5 x i8]* %109, i64 0, i64 %112
  store i8 0, i8* %113, align 1
  br label %114

114:                                              ; preds = %92, %84, %69, %62
  br label %115

115:                                              ; preds = %114
  %116 = load i32, i32* %2, align 4
  %117 = add nsw i32 %116, 1
  store i32 %117, i32* %2, align 4
  br label %12

118:                                              ; preds = %12
  %119 = load i32, i32* %3, align 4
  %120 = icmp eq i32 %119, 1
  br i1 %120, label %121, label %123

121:                                              ; preds = %118
  %122 = call i32 (i8*, ...) @printf(i8* getelementptr inbounds ([4 x i8], [4 x i8]* @.str, i64 0, i64 0))
  br label %240

123:                                              ; preds = %118
  store i32 0, i32* %2, align 4
  br label %124

124:                                              ; preds = %137, %123
  %125 = load i32, i32* %2, align 4
  %126 = load i32, i32* %5, align 4
  %127 = icmp slt i32 %125, %126
  br i1 %127, label %128, label %140

128:                                              ; preds = %124
  %129 = load i32, i32* %2, align 4
  %130 = sext i32 %129 to i64
  %131 = getelementptr inbounds [300 x [5 x i8]], [300 x [5 x i8]]* %9, i64 0, i64 %130
  %132 = getelementptr inbounds [5 x i8], [5 x i8]* %131, i64 0, i64 0
  %133 = load i32, i32* %2, align 4
  %134 = sext i32 %133 to i64
  %135 = getelementptr inbounds [300 x i32], [300 x i32]* %1, i64 0, i64 %134
  %136 = call i32 (i8*, i8*, ...) @__isoc99_sscanf(i8* %132, i8* getelementptr inbounds ([3 x i8], [3 x i8]* @.str.1, i64 0, i64 0), i32* %135) #3
  br label %137

137:                                              ; preds = %128
  %138 = load i32, i32* %2, align 4
  %139 = add nsw i32 %138, 1
  store i32 %139, i32* %2, align 4
  br label %124

140:                                              ; preds = %124
  %141 = getelementptr inbounds [300 x i32], [300 x i32]* %1, i64 0, i64 0
  %142 = load i32, i32* %141, align 16
  store i32 %142, i32* %7, align 4
  store i32 0, i32* %2, align 4
  br label %143

143:                                              ; preds = %156, %140
  %144 = load i32, i32* %2, align 4
  %145 = load i32, i32* %5, align 4
  %146 = icmp slt i32 %144, %145
  br i1 %146, label %147, label %159

147:                                              ; preds = %143
  %148 = load i32, i32* %2, align 4
  %149 = sext i32 %148 to i64
  %150 = getelementptr inbounds [300 x i32], [300 x i32]* %1, i64 0, i64 %149
  %151 = load i32, i32* %150, align 4
  %152 = load i32, i32* %7, align 4
  %153 = icmp ne i32 %151, %152
  br i1 %153, label %154, label %155

154:                                              ; preds = %147
  br label %159

155:                                              ; preds = %147
  br label %156

156:                                              ; preds = %155
  %157 = load i32, i32* %2, align 4
  %158 = add nsw i32 %157, 1
  store i32 %158, i32* %2, align 4
  br label %143

159:                                              ; preds = %154, %143
  %160 = load i32, i32* %2, align 4
  %161 = load i32, i32* %5, align 4
  %162 = icmp slt i32 %160, %161
  br i1 %162, label %163, label %237

163:                                              ; preds = %159
  store i32 1, i32* %2, align 4
  br label %164

164:                                              ; preds = %209, %163
  %165 = load i32, i32* %2, align 4
  %166 = load i32, i32* %5, align 4
  %167 = icmp slt i32 %165, %166
  br i1 %167, label %168, label %212

168:                                              ; preds = %164
  store i32 0, i32* %3, align 4
  br label %169

169:                                              ; preds = %205, %168
  %170 = load i32, i32* %3, align 4
  %171 = load i32, i32* %5, align 4
  %172 = load i32, i32* %2, align 4
  %173 = sub nsw i32 %171, %172
  %174 = icmp slt i32 %170, %173
  br i1 %174, label %175, label %208

175:                                              ; preds = %169
  %176 = load i32, i32* %3, align 4
  %177 = sext i32 %176 to i64
  %178 = getelementptr inbounds [300 x i32], [300 x i32]* %1, i64 0, i64 %177
  %179 = load i32, i32* %178, align 4
  %180 = load i32, i32* %3, align 4
  %181 = add nsw i32 %180, 1
  %182 = sext i32 %181 to i64
  %183 = getelementptr inbounds [300 x i32], [300 x i32]* %1, i64 0, i64 %182
  %184 = load i32, i32* %183, align 4
  %185 = icmp slt i32 %179, %184
  br i1 %185, label %186, label %204

186:                                              ; preds = %175
  %187 = load i32, i32* %3, align 4
  %188 = sext i32 %187 to i64
  %189 = getelementptr inbounds [300 x i32], [300 x i32]* %1, i64 0, i64 %188
  %190 = load i32, i32* %189, align 4
  store i32 %190, i32* %6, align 4
  %191 = load i32, i32* %3, align 4
  %192 = add nsw i32 %191, 1
  %193 = sext i32 %192 to i64
  %194 = getelementptr inbounds [300 x i32], [300 x i32]* %1, i64 0, i64 %193
  %195 = load i32, i32* %194, align 4
  %196 = load i32, i32* %3, align 4
  %197 = sext i32 %196 to i64
  %198 = getelementptr inbounds [300 x i32], [300 x i32]* %1, i64 0, i64 %197
  store i32 %195, i32* %198, align 4
  %199 = load i32, i32* %6, align 4
  %200 = load i32, i32* %3, align 4
  %201 = add nsw i32 %200, 1
  %202 = sext i32 %201 to i64
  %203 = getelementptr inbounds [300 x i32], [300 x i32]* %1, i64 0, i64 %202
  store i32 %199, i32* %203, align 4
  br label %204

204:                                              ; preds = %186, %175
  br label %205

205:                                              ; preds = %204
  %206 = load i32, i32* %3, align 4
  %207 = add nsw i32 %206, 1
  store i32 %207, i32* %3, align 4
  br label %169

208:                                              ; preds = %169
  br label %209

209:                                              ; preds = %208
  %210 = load i32, i32* %2, align 4
  %211 = add nsw i32 %210, 1
  store i32 %211, i32* %2, align 4
  br label %164

212:                                              ; preds = %164
  %213 = getelementptr inbounds [300 x i32], [300 x i32]* %1, i64 0, i64 0
  %214 = load i32, i32* %213, align 16
  store i32 %214, i32* %7, align 4
  store i32 0, i32* %2, align 4
  br label %215

215:                                              ; preds = %228, %212
  %216 = load i32, i32* %2, align 4
  %217 = load i32, i32* %5, align 4
  %218 = icmp slt i32 %216, %217
  br i1 %218, label %219, label %231

219:                                              ; preds = %215
  %220 = load i32, i32* %2, align 4
  %221 = sext i32 %220 to i64
  %222 = getelementptr inbounds [300 x i32], [300 x i32]* %1, i64 0, i64 %221
  %223 = load i32, i32* %222, align 4
  %224 = load i32, i32* %7, align 4
  %225 = icmp ne i32 %223, %224
  br i1 %225, label %226, label %227

226:                                              ; preds = %219
  br label %231

227:                                              ; preds = %219
  br label %228

228:                                              ; preds = %227
  %229 = load i32, i32* %2, align 4
  %230 = add nsw i32 %229, 1
  store i32 %230, i32* %2, align 4
  br label %215

231:                                              ; preds = %226, %215
  %232 = load i32, i32* %2, align 4
  %233 = sext i32 %232 to i64
  %234 = getelementptr inbounds [300 x i32], [300 x i32]* %1, i64 0, i64 %233
  %235 = load i32, i32* %234, align 4
  %236 = call i32 (i8*, ...) @printf(i8* getelementptr inbounds ([4 x i8], [4 x i8]* @.str.2, i64 0, i64 0), i32 %235)
  br label %239

237:                                              ; preds = %159
  %238 = call i32 (i8*, ...) @printf(i8* getelementptr inbounds ([4 x i8], [4 x i8]* @.str, i64 0, i64 0))
  br label %239

239:                                              ; preds = %237, %231
  br label %240

240:                                              ; preds = %239, %121
  ret void
}

declare dso_local i32 @gets(...) #1

declare dso_local i32 @printf(i8*, ...) #1

; Function Attrs: nounwind
declare dso_local i32 @__isoc99_sscanf(i8*, i8*, ...) #2


!llvm.module.flags = !{!0}
!llvm.ident = !{!1}

!0 = !{i32 1, !"wchar_size", i32 4}
!1 = !{!"clang version 10.0.0-4ubuntu1 "}
